target datalayout = "e-m:e-p270:32:32-p271:32:32-p272:64:64-i64:64-i128:128-f80:128-n8:16:32:64-S128"
target triple = "x86_64-pc-linux-gnu"

%struct.AddressSpace = type { %struct.rcu_head, ptr, ptr, ptr, i32, i32, ptr, %union.anon, %union.anon.0, i64, i64, %struct.QemuMutex, %struct.anon }
%struct.rcu_head = type { ptr, ptr }
%union.anon = type { %struct.QTailQLink }
%struct.QTailQLink = type { ptr, ptr }
%union.anon.0 = type { %struct.QTailQLink }
%struct.QemuMutex = type { %union.pthread_mutex_t, i8 }
%union.pthread_mutex_t = type { %struct.__pthread_mutex_s }
%struct.__pthread_mutex_s = type { i32, i32, i32, i32, i32, i16, i16, %struct.__pthread_internal_list }
%struct.__pthread_internal_list = type { ptr, ptr }
%struct.anon = type { ptr }
%struct.VirtIOPCIProxy = type { %struct.PCIDevice, %struct.MemoryRegion, %union.anon.7, %struct.MemoryRegion, %struct.MemoryRegion, %struct.AddressSpace, %struct.AddressSpace, i32, i32, i32, i32, i32, i32, i8, i8, i32, i16, i32, i32, i32, i32, [2 x i32], [1024 x %struct.VirtIOPCIQueue], ptr, i32, %struct.VirtioBusState }
%struct.PCIDevice = type { %struct.DeviceState, i8, i8, ptr, ptr, ptr, ptr, ptr, i32, %struct.PCIReqIDCache, [64 x i8], [7 x %struct.PCIIORegion], %struct.AddressSpace, %struct.MemoryRegion, %struct.MemoryRegion, ptr, ptr, [3 x ptr], i8, i8, i32, i8, i32, ptr, ptr, ptr, ptr, ptr, ptr, %struct.MemoryRegion, %struct.MemoryRegion, %struct.MemoryRegion, ptr, i8, i32, i8, %struct.PCIExpressDevice, ptr, ptr, i32, i8, %struct.MemoryRegion, i32, ptr, ptr, ptr, ptr, i16, %struct.DOECap, ptr, i32, i32 }
%struct.DeviceState = type { %struct.Object, ptr, ptr, i8, i8, i64, i32, i8, ptr, %struct.NamedGPIOListHead, %struct.NamedClockListHead, %struct.BusStateHead, i32, i32, i32, %struct.ResettableState, ptr, %struct.MemReentrancyGuard }
%struct.Object = type { ptr, ptr, ptr, i32, ptr }
%struct.NamedGPIOListHead = type { ptr }
%struct.NamedClockListHead = type { ptr }
%struct.BusStateHead = type { ptr }
%struct.ResettableState = type { i32, i8, i8 }
%struct.MemReentrancyGuard = type { i8 }
%struct.PCIReqIDCache = type { ptr, i32 }
%struct.PCIIORegion = type { i64, i64, i8, ptr, ptr }
%struct.PCIExpressDevice = type { i8, i8, i8, i16, %struct.PCIEAERLog, i16, i16, i16, %struct.PCIESriovPF, %struct.PCIESriovVF }
%struct.PCIEAERLog = type { i16, i16, ptr }
%struct.PCIESriovPF = type { i16, [7 x i8], ptr, ptr }
%struct.PCIESriovVF = type { ptr, i16 }
%struct.DOECap = type { ptr, i16, %struct.anon.4, %struct.anon.5, %struct.anon.6, ptr, ptr, i32, i32, i32, ptr, i16, i32 }
%struct.anon.4 = type { i8, i16 }
%struct.anon.5 = type { i8, i8, i8 }
%struct.anon.6 = type { i8, i8, i8, i8 }
%union.anon.7 = type { %struct.anon.8 }
%struct.anon.8 = type { %struct.VirtIOPCIRegion, %struct.VirtIOPCIRegion, %struct.VirtIOPCIRegion, %struct.VirtIOPCIRegion, %struct.VirtIOPCIRegion }
%struct.VirtIOPCIRegion = type { %struct.MemoryRegion, i32, i32, i32 }
%struct.MemoryRegion = type { %struct.Object, i8, i8, i8, i8, i8, i8, i8, i8, i8, i8, ptr, ptr, ptr, ptr, ptr, ptr, i32, i128, i64, ptr, i64, i8, i8, i8, i8, ptr, i64, i32, %union.anon.1, %union.anon.2, %union.anon.3, ptr, i32, ptr, ptr, i8 }
%union.anon.1 = type { %struct.QTailQLink }
%union.anon.2 = type { %struct.QTailQLink }
%union.anon.3 = type { %struct.QTailQLink }
%struct.VirtIOPCIQueue = type { i16, i8, i8, [2 x i32], [2 x i32], [2 x i32] }
%struct.VirtioBusState = type { %struct.BusState, i8, i32 }
%struct.BusState = type { %struct.Object, ptr, ptr, ptr, i32, i8, i8, i32, %union.BusChildHead, %struct.BusStateEntry, %struct.ResettableState }
%union.BusChildHead = type { %struct.QTailQLink }
%struct.BusStateEntry = type { ptr, ptr }
%struct.ObjectClass = type { ptr, ptr, [4 x ptr], [4 x ptr], ptr, ptr }
%struct.VirtIODevice = type { %struct.DeviceState, ptr, i8, i8, i16, i64, i64, i64, i64, ptr, i16, i32, i32, ptr, %struct.MemoryListener, i16, i8, i8, i8, i8, i8, i8, i8, i8, i8, ptr, ptr, i8, i8, ptr, ptr, %union.anon.12, %struct.EventNotifier, i8 }
%struct.MemoryListener = type { ptr, ptr, ptr, ptr, ptr, ptr, ptr, ptr, ptr, ptr, ptr, ptr, ptr, ptr, ptr, ptr, ptr, i32, ptr, ptr, %union.anon.10, %union.anon.11 }
%union.anon.10 = type { %struct.QTailQLink }
%union.anon.11 = type { %struct.QTailQLink }
%union.anon.12 = type { %struct.QTailQLink }
%struct.EventNotifier = type { i32, i32, i8 }
%struct.VirtioDeviceClass = type { %struct.DeviceClass, ptr, ptr, ptr, ptr, ptr, ptr, ptr, ptr, ptr, ptr, ptr, ptr, i64, ptr, ptr, ptr, ptr, ptr, ptr, ptr, ptr, ptr, ptr, ptr, ptr }
%struct.DeviceClass = type { %struct.ObjectClass, [1 x i64], ptr, ptr, ptr, i16, i8, i8, ptr, ptr, ptr, ptr, ptr, ptr }
%struct.BusChild = type { %struct.rcu_head, ptr, i32, %union.anon.13 }
%union.anon.13 = type { %struct.QTailQLink }

@.str.42 = private unnamed_addr constant [14 x i8] c"virtio-device\00", align 1
@.str.43 = private unnamed_addr constant [105 x i8] c"/home/dtcxzyw/WorkSpace/Projects/compilers/llvm-opt-benchmark/bench/qemu/qemu/include/hw/virtio/virtio.h\00", align 1
@__func__.VIRTIO_DEVICE_GET_CLASS = private unnamed_addr constant [24 x i8] c"VIRTIO_DEVICE_GET_CLASS\00", align 1

; Function Attrs: nounwind sspstrong uwtable
define internal i32 @virtio_pci_get_notifier(ptr noundef %0, i32 noundef %1, ptr noundef %2, ptr noundef %3) #0 {
  %5 = alloca i32, align 4
  %6 = alloca ptr, align 8
  %7 = alloca i32, align 4
  %8 = alloca ptr, align 8
  %9 = alloca ptr, align 8
  %10 = alloca ptr, align 8
  %11 = alloca ptr, align 8
  %12 = alloca i32, align 4
  store ptr %0, ptr %6, align 8
  store i32 %1, ptr %7, align 4
  store ptr %2, ptr %8, align 8
  store ptr %3, ptr %9, align 8
  call void @llvm.lifetime.start.p0(i64 8, ptr %10) #13
  %13 = load ptr, ptr %6, align 8
  %14 = getelementptr inbounds nuw %struct.VirtIOPCIProxy, ptr %13, i32 0, i32 25
  %15 = call ptr @virtio_bus_get_device(ptr noundef %14)
  store ptr %15, ptr %10, align 8
  call void @llvm.lifetime.start.p0(i64 8, ptr %11) #13
  store ptr null, ptr %11, align 8, !annotation !4
  %16 = load ptr, ptr %6, align 8
  %17 = getelementptr inbounds nuw %struct.VirtIOPCIProxy, ptr %16, i32 0, i32 23
  %18 = load ptr, ptr %17, align 16
  %19 = icmp ne ptr %18, null
  br i1 %19, label %28, label %20

20:                                               ; preds = %4
  %21 = load ptr, ptr %10, align 8
  %22 = getelementptr inbounds nuw %struct.VirtIODevice, ptr %21, i32 0, i32 2
  %23 = load i8, ptr %22, align 8
  %24 = zext i8 %23 to i32
  %25 = and i32 %24, 4
  %26 = icmp ne i32 %25, 0
  br i1 %26, label %27, label %28

27:                                               ; preds = %20
  store i32 -1, ptr %5, align 4
  store i32 1, ptr %12, align 4
  br label %59

28:                                               ; preds = %20, %4
  %29 = load i32, ptr %7, align 4
  %30 = icmp eq i32 %29, -1
  br i1 %30, label %31, label %40

31:                                               ; preds = %28
  %32 = load ptr, ptr %10, align 8
  %33 = call ptr @virtio_config_get_guest_notifier(ptr noundef %32)
  %34 = load ptr, ptr %8, align 8
  store ptr %33, ptr %34, align 8
  %35 = load ptr, ptr %10, align 8
  %36 = getelementptr inbounds nuw %struct.VirtIODevice, ptr %35, i32 0, i32 10
  %37 = load i16, ptr %36, align 8
  %38 = zext i16 %37 to i32
  %39 = load ptr, ptr %9, align 8
  store i32 %38, ptr %39, align 4
  br label %58

40:                                               ; preds = %28
  %41 = load ptr, ptr %10, align 8
  %42 = load i32, ptr %7, align 4
  %43 = call i32 @virtio_queue_get_num(ptr noundef %41, i32 noundef %42)
  %44 = icmp ne i32 %43, 0
  br i1 %44, label %46, label %45

45:                                               ; preds = %40
  store i32 -1, ptr %5, align 4
  store i32 1, ptr %12, align 4
  br label %59

46:                                               ; preds = %40
  %47 = load ptr, ptr %10, align 8
  %48 = load i32, ptr %7, align 4
  %49 = call zeroext i16 @virtio_queue_vector(ptr noundef %47, i32 noundef %48)
  %50 = zext i16 %49 to i32
  %51 = load ptr, ptr %9, align 8
  store i32 %50, ptr %51, align 4
  %52 = load ptr, ptr %10, align 8
  %53 = load i32, ptr %7, align 4
  %54 = call ptr @virtio_get_queue(ptr noundef %52, i32 noundef %53)
  store ptr %54, ptr %11, align 8
  %55 = load ptr, ptr %11, align 8
  %56 = call ptr @virtio_queue_get_guest_notifier(ptr noundef %55)
  %57 = load ptr, ptr %8, align 8
  store ptr %56, ptr %57, align 8
  br label %58

58:                                               ; preds = %46, %31
  store i32 0, ptr %5, align 4
  store i32 1, ptr %12, align 4
  br label %59

59:                                               ; preds = %58, %45, %27
  call void @llvm.lifetime.end.p0(i64 8, ptr %11) #13
  call void @llvm.lifetime.end.p0(i64 8, ptr %10) #13
  %60 = load i32, ptr %5, align 4
  ret i32 %60
}

; Function Attrs: inlinehint nounwind sspstrong uwtable
define internal ptr @VIRTIO_DEVICE_GET_CLASS(ptr noundef %0) #4 {
  %2 = alloca ptr, align 8
  store ptr %0, ptr %2, align 8
  %3 = load ptr, ptr %2, align 8
  %4 = call ptr @object_get_class(ptr noundef %3)
  %5 = call ptr @object_class_dynamic_cast_assert(ptr noundef %4, ptr noundef @.str.42, ptr noundef @.str.43, i32 noundef 88, ptr noundef @__func__.VIRTIO_DEVICE_GET_CLASS)
  ret ptr %5
}

; Function Attrs: inlinehint nounwind sspstrong uwtable
define internal ptr @virtio_bus_get_device(ptr noundef %0) #4 {
  %2 = alloca ptr, align 8
  %3 = alloca ptr, align 8
  %4 = alloca ptr, align 8
  %5 = alloca ptr, align 8
  store ptr %0, ptr %2, align 8
  call void @llvm.lifetime.start.p0(i64 8, ptr %3) #13
  %6 = load ptr, ptr %2, align 8
  %7 = getelementptr inbounds nuw %struct.VirtioBusState, ptr %6, i32 0, i32 0
  store ptr %7, ptr %3, align 8
  call void @llvm.lifetime.start.p0(i64 8, ptr %4) #13
  %8 = load ptr, ptr %3, align 8
  %9 = getelementptr inbounds nuw %struct.BusState, ptr %8, i32 0, i32 8
  %10 = load ptr, ptr %9, align 8
  store ptr %10, ptr %4, align 8
  call void @llvm.lifetime.start.p0(i64 8, ptr %5) #13
  %11 = load ptr, ptr %4, align 8
  %12 = icmp ne ptr %11, null
  br i1 %12, label %13, label %17

13:                                               ; preds = %1
  %14 = load ptr, ptr %4, align 8
  %15 = getelementptr inbounds nuw %struct.BusChild, ptr %14, i32 0, i32 1
  %16 = load ptr, ptr %15, align 8
  br label %18

17:                                               ; preds = %1
  br label %18

18:                                               ; preds = %17, %13
  %19 = phi ptr [ %16, %13 ], [ null, %17 ]
  store ptr %19, ptr %5, align 8
  %20 = load ptr, ptr %5, align 8
  call void @llvm.lifetime.end.p0(i64 8, ptr %5) #13
  call void @llvm.lifetime.end.p0(i64 8, ptr %4) #13
  call void @llvm.lifetime.end.p0(i64 8, ptr %3) #13
  ret ptr %20
}

; Function Attrs: nounwind sspstrong uwtable
define internal void @virtio_pci_vector_poll(ptr noundef %0, i32 noundef %1, i32 noundef %2) #0 {
  %4 = alloca ptr, align 8
  %5 = alloca i32, align 4
  %6 = alloca i32, align 4
  %7 = alloca ptr, align 8
  %8 = alloca ptr, align 8
  %9 = alloca ptr, align 8
  %10 = alloca ptr, align 8
  %11 = alloca ptr, align 8
  %12 = alloca i32, align 4
  %13 = alloca i32, align 4
  %14 = alloca ptr, align 8
  %15 = alloca i32, align 4
  %16 = alloca i32, align 4
  store ptr %0, ptr %4, align 8
  store i32 %1, ptr %5, align 4
  store i32 %2, ptr %6, align 4
  call void @llvm.lifetime.start.p0(i64 8, ptr %7) #13
  call void @llvm.lifetime.start.p0(i64 8, ptr %8) #13
  %17 = load ptr, ptr %4, align 8
  store ptr %17, ptr %8, align 8
  %18 = load ptr, ptr %8, align 8
  %19 = getelementptr inbounds i8, ptr %18, i64 0
  store ptr %19, ptr %9, align 8
  call void @llvm.lifetime.end.p0(i64 8, ptr %8) #13
  %20 = load ptr, ptr %9, align 8
  store ptr %20, ptr %7, align 8
  call void @llvm.lifetime.start.p0(i64 8, ptr %10) #13
  %21 = load ptr, ptr %7, align 8
  %22 = getelementptr inbounds nuw %struct.VirtIOPCIProxy, ptr %21, i32 0, i32 25
  %23 = call ptr @virtio_bus_get_device(ptr noundef %22)
  store ptr %23, ptr %10, align 8
  call void @llvm.lifetime.start.p0(i64 8, ptr %11) #13
  %24 = load ptr, ptr %10, align 8
  %25 = call ptr @VIRTIO_DEVICE_GET_CLASS(ptr noundef %24)
  store ptr %25, ptr %11, align 8
  call void @llvm.lifetime.start.p0(i64 4, ptr %12) #13
  store i32 0, ptr %12, align 4, !annotation !4
  call void @llvm.lifetime.start.p0(i64 4, ptr %13) #13
  store i32 0, ptr %13, align 4, !annotation !4
  call void @llvm.lifetime.start.p0(i64 8, ptr %14) #13
  store ptr null, ptr %14, align 8, !annotation !4
  call void @llvm.lifetime.start.p0(i64 4, ptr %15) #13
  store i32 0, ptr %15, align 4, !annotation !4
  store i32 0, ptr %12, align 4
  br label %26

26:                                               ; preds = %77, %3
  %27 = load i32, ptr %12, align 4
  %28 = load ptr, ptr %7, align 8
  %29 = getelementptr inbounds nuw %struct.VirtIOPCIProxy, ptr %28, i32 0, i32 24
  %30 = load i32, ptr %29, align 8
  %31 = icmp slt i32 %27, %30
  br i1 %31, label %32, label %80

32:                                               ; preds = %26
  %33 = load ptr, ptr %7, align 8
  %34 = load i32, ptr %12, align 4
  %35 = call i32 @virtio_pci_get_notifier(ptr noundef %33, i32 noundef %34, ptr noundef %14, ptr noundef %13)
  store i32 %35, ptr %15, align 4
  %36 = load i32, ptr %15, align 4
  %37 = icmp slt i32 %36, 0
  br i1 %37, label %38, label %39

38:                                               ; preds = %32
  br label %80

39:                                               ; preds = %32
  %40 = load i32, ptr %13, align 4
  %41 = load i32, ptr %5, align 4
  %42 = icmp ult i32 %40, %41
  br i1 %42, label %51, label %43

43:                                               ; preds = %39
  %44 = load i32, ptr %13, align 4
  %45 = load i32, ptr %6, align 4
  %46 = icmp uge i32 %44, %45
  br i1 %46, label %51, label %47

47:                                               ; preds = %43
  %48 = load ptr, ptr %4, align 8
  %49 = load i32, ptr %13, align 4
  %50 = call zeroext i1 @msix_is_masked(ptr noundef %48, i32 noundef %49)
  br i1 %50, label %52, label %51

51:                                               ; preds = %47, %43, %39
  br label %77

52:                                               ; preds = %47
  %53 = load ptr, ptr %11, align 8
  %54 = getelementptr inbounds nuw %struct.VirtioDeviceClass, ptr %53, i32 0, i32 14
  %55 = load ptr, ptr %54, align 8
  %56 = icmp ne ptr %55, null
  br i1 %56, label %57, label %68

57:                                               ; preds = %52
  %58 = load ptr, ptr %11, align 8
  %59 = getelementptr inbounds nuw %struct.VirtioDeviceClass, ptr %58, i32 0, i32 14
  %60 = load ptr, ptr %59, align 8
  %61 = load ptr, ptr %10, align 8
  %62 = load i32, ptr %12, align 4
  %63 = call zeroext i1 %60(ptr noundef %61, i32 noundef %62)
  br i1 %63, label %64, label %67

64:                                               ; preds = %57
  %65 = load ptr, ptr %4, align 8
  %66 = load i32, ptr %13, align 4
  call void @msix_set_pending(ptr noundef %65, i32 noundef %66)
  br label %67

67:                                               ; preds = %64, %57
  br label %76

68:                                               ; preds = %52
  %69 = load ptr, ptr %14, align 8
  %70 = call i32 @event_notifier_test_and_clear(ptr noundef %69)
  %71 = icmp ne i32 %70, 0
  br i1 %71, label %72, label %75

72:                                               ; preds = %68
  %73 = load ptr, ptr %4, align 8
  %74 = load i32, ptr %13, align 4
  call void @msix_set_pending(ptr noundef %73, i32 noundef %74)
  br label %75

75:                                               ; preds = %72, %68
  br label %76

76:                                               ; preds = %75, %67
  br label %77

77:                                               ; preds = %76, %51
  %78 = load i32, ptr %12, align 4
  %79 = add i32 %78, 1
  store i32 %79, ptr %12, align 4
  br label %26, !llvm.loop !18

80:                                               ; preds = %38, %26
  %81 = load ptr, ptr %7, align 8
  %82 = call i32 @virtio_pci_get_notifier(ptr noundef %81, i32 noundef -1, ptr noundef %14, ptr noundef %13)
  store i32 %82, ptr %15, align 4
  %83 = load i32, ptr %15, align 4
  %84 = icmp slt i32 %83, 0
  br i1 %84, label %85, label %86

85:                                               ; preds = %80
  store i32 1, ptr %16, align 4
  br label %123

86:                                               ; preds = %80
  %87 = load i32, ptr %13, align 4
  %88 = load i32, ptr %5, align 4
  %89 = icmp ult i32 %87, %88
  br i1 %89, label %98, label %90

90:                                               ; preds = %86
  %91 = load i32, ptr %13, align 4
  %92 = load i32, ptr %6, align 4
  %93 = icmp uge i32 %91, %92
  br i1 %93, label %98, label %94

94:                                               ; preds = %90
  %95 = load ptr, ptr %4, align 8
  %96 = load i32, ptr %13, align 4
  %97 = call zeroext i1 @msix_is_masked(ptr noundef %95, i32 noundef %96)
  br i1 %97, label %99, label %98

98:                                               ; preds = %94, %90, %86
  store i32 1, ptr %16, align 4
  br label %123

99:                                               ; preds = %94
  %100 = load ptr, ptr %11, align 8
  %101 = getelementptr inbounds nuw %struct.VirtioDeviceClass, ptr %100, i32 0, i32 14
  %102 = load ptr, ptr %101, align 8
  %103 = icmp ne ptr %102, null
  br i1 %103, label %104, label %114

104:                                              ; preds = %99
  %105 = load ptr, ptr %11, align 8
  %106 = getelementptr inbounds nuw %struct.VirtioDeviceClass, ptr %105, i32 0, i32 14
  %107 = load ptr, ptr %106, align 8
  %108 = load ptr, ptr %10, align 8
  %109 = call zeroext i1 %107(ptr noundef %108, i32 noundef -1)
  br i1 %109, label %110, label %113

110:                                              ; preds = %104
  %111 = load ptr, ptr %4, align 8
  %112 = load i32, ptr %13, align 4
  call void @msix_set_pending(ptr noundef %111, i32 noundef %112)
  br label %113

113:                                              ; preds = %110, %104
  br label %122

114:                                              ; preds = %99
  %115 = load ptr, ptr %14, align 8
  %116 = call i32 @event_notifier_test_and_clear(ptr noundef %115)
  %117 = icmp ne i32 %116, 0
  br i1 %117, label %118, label %121

118:                                              ; preds = %114
  %119 = load ptr, ptr %4, align 8
  %120 = load i32, ptr %13, align 4
  call void @msix_set_pending(ptr noundef %119, i32 noundef %120)
  br label %121

121:                                              ; preds = %118, %114
  br label %122

122:                                              ; preds = %121, %113
  store i32 0, ptr %16, align 4
  br label %123

123:                                              ; preds = %122, %98, %85
  call void @llvm.lifetime.end.p0(i64 4, ptr %15) #13
  call void @llvm.lifetime.end.p0(i64 8, ptr %14) #13
  call void @llvm.lifetime.end.p0(i64 4, ptr %13) #13
  call void @llvm.lifetime.end.p0(i64 4, ptr %12) #13
  call void @llvm.lifetime.end.p0(i64 8, ptr %11) #13
  call void @llvm.lifetime.end.p0(i64 8, ptr %10) #13
  call void @llvm.lifetime.end.p0(i64 8, ptr %7) #13
  %124 = load i32, ptr %16, align 4
  switch i32 %124, label %126 [
    i32 0, label %125
    i32 1, label %125
  ]

125:                                              ; preds = %123, %123
  ret void

126:                                              ; preds = %123
  unreachable
}