; Function Attrs: nounwind sspstrong uwtable
define internal void @virtio_pci_vector_poll(ptr noundef %0, i32 noundef %1, i32 noundef %2) #0 {
  %4 = getelementptr i8, ptr %0, i64 34160
  %.val = load ptr, ptr %4, align 8
  %.not.i = icmp eq ptr %.val, null
  br i1 %.not.i, label %virtio_bus_get_device.exit, label %5

5:                                                ; preds = %3
  %6 = getelementptr inbounds nuw i8, ptr %.val, i64 16
  %7 = load ptr, ptr %6, align 8
  br label %virtio_bus_get_device.exit

virtio_bus_get_device.exit:                       ; preds = %3, %5
  %8 = phi ptr [ %7, %5 ], [ null, %3 ]
  %9 = tail call ptr @object_get_class(ptr noundef %8) #15
  %10 = tail call ptr @object_class_dynamic_cast_assert(ptr noundef %9, ptr noundef nonnull @.str.42, ptr noundef nonnull @.str.43, i32 noundef 88, ptr noundef nonnull @__func__.VIRTIO_DEVICE_GET_CLASS) #15
  %11 = getelementptr inbounds nuw i8, ptr %0, i64 34072
  %12 = load i32, ptr %11, align 8
  %13 = icmp sgt i32 %12, 0
  br i1 %13, label %.lr.ph, label %virtio_pci_get_notifier.exit.thread

.lr.ph:                                           ; preds = %virtio_bus_get_device.exit
  %14 = getelementptr inbounds nuw i8, ptr %0, i64 34064
  %15 = getelementptr inbounds nuw i8, ptr %10, i64 288
  br label %16

16:                                               ; preds = %.lr.ph, %40
  %.064 = phi i32 [ 0, %.lr.ph ], [ %41, %40 ]
  %.val.i = load ptr, ptr %4, align 8
  %.not.i.i = icmp eq ptr %.val.i, null
  br i1 %.not.i.i, label %virtio_bus_get_device.exit.i, label %17

17:                                               ; preds = %16
  %18 = getelementptr inbounds nuw i8, ptr %.val.i, i64 16
  %19 = load ptr, ptr %18, align 8
  br label %virtio_bus_get_device.exit.i

virtio_bus_get_device.exit.i:                     ; preds = %17, %16
  %20 = phi ptr [ %19, %17 ], [ null, %16 ]
  %21 = load ptr, ptr %14, align 16
  %.not.i39 = icmp eq ptr %21, null
  br i1 %.not.i39, label %22, label %26

22:                                               ; preds = %virtio_bus_get_device.exit.i
  %23 = getelementptr inbounds nuw i8, ptr %20, i64 160
  %24 = load i8, ptr %23, align 8
  %25 = and i8 %24, 4
  %.not18.i = icmp eq i8 %25, 0
  br i1 %.not18.i, label %26, label %virtio_pci_get_notifier.exit.thread

26:                                               ; preds = %virtio_bus_get_device.exit.i, %22
  %27 = tail call i32 @virtio_queue_get_num(ptr noundef %20, i32 noundef %.064) #15
  %.not19.i = icmp eq i32 %27, 0
  br i1 %.not19.i, label %virtio_pci_get_notifier.exit.thread, label %virtio_pci_get_notifier.exit

virtio_pci_get_notifier.exit:                     ; preds = %26
  %28 = tail call zeroext i16 @virtio_queue_vector(ptr noundef %20, i32 noundef %.064) #15
  %29 = tail call ptr @virtio_get_queue(ptr noundef %20, i32 noundef %.064) #15
  %30 = tail call ptr @virtio_queue_get_guest_notifier(ptr noundef %29) #15
  %.256 = zext i16 %28 to i32
  %31 = icmp ule i32 %1, %.256
  %.not = icmp ugt i32 %2, %.256
  %or.cond = and i1 %31, %.not
  br i1 %or.cond, label %32, label %40

32:                                               ; preds = %virtio_pci_get_notifier.exit
  %33 = tail call zeroext i1 @msix_is_masked(ptr noundef nonnull %0, i32 noundef %.256) #15
  br i1 %33, label %34, label %40

34:                                               ; preds = %32
  %35 = load ptr, ptr %15, align 8
  %.not33 = icmp eq ptr %35, null
  br i1 %.not33, label %38, label %36

36:                                               ; preds = %34
  %37 = tail call zeroext i1 %35(ptr noundef %8, i32 noundef %.064) #15
  br i1 %37, label %.sink.split, label %40

38:                                               ; preds = %34
  %39 = tail call i32 @event_notifier_test_and_clear(ptr noundef %30) #15
  %.not34 = icmp eq i32 %39, 0
  br i1 %.not34, label %40, label %.sink.split

.sink.split:                                      ; preds = %38, %36
  tail call void @msix_set_pending(ptr noundef nonnull %0, i32 noundef %.256) #15
  br label %40

40:                                               ; preds = %.sink.split, %36, %38, %virtio_pci_get_notifier.exit, %32
  %41 = add nuw nsw i32 %.064, 1
  %42 = load i32, ptr %11, align 8
  %43 = icmp slt i32 %41, %42
  br i1 %43, label %16, label %virtio_pci_get_notifier.exit.thread, !llvm.loop !15

virtio_pci_get_notifier.exit.thread:              ; preds = %40, %22, %26, %virtio_bus_get_device.exit
  %.val.i40 = load ptr, ptr %4, align 8
  %.not.i.i41 = icmp eq ptr %.val.i40, null
  br i1 %.not.i.i41, label %virtio_bus_get_device.exit.i42, label %44

44:                                               ; preds = %virtio_pci_get_notifier.exit.thread
  %45 = getelementptr inbounds nuw i8, ptr %.val.i40, i64 16
  %46 = load ptr, ptr %45, align 8
  br label %virtio_bus_get_device.exit.i42

virtio_bus_get_device.exit.i42:                   ; preds = %44, %virtio_pci_get_notifier.exit.thread
  %47 = phi ptr [ %46, %44 ], [ null, %virtio_pci_get_notifier.exit.thread ]
  %48 = getelementptr inbounds nuw i8, ptr %0, i64 34064
  %49 = load ptr, ptr %48, align 16
  %.not.i43 = icmp eq ptr %49, null
  br i1 %.not.i43, label %50, label %54

50:                                               ; preds = %virtio_bus_get_device.exit.i42
  %51 = getelementptr inbounds nuw i8, ptr %47, i64 160
  %52 = load i8, ptr %51, align 8
  %53 = and i8 %52, 4
  %.not18.i45 = icmp eq i8 %53, 0
  br i1 %.not18.i45, label %54, label %virtio_pci_get_notifier.exit46.thread

54:                                               ; preds = %50, %virtio_bus_get_device.exit.i42
  %55 = tail call ptr @virtio_config_get_guest_notifier(ptr noundef %47) #15
  %56 = getelementptr inbounds nuw i8, ptr %47, i64 208
  %57 = load i16, ptr %56, align 8
  %58 = zext i16 %57 to i32
  %59 = icmp ule i32 %1, %58
  %.not35 = icmp ugt i32 %2, %58
  %or.cond38 = and i1 %59, %.not35
  br i1 %or.cond38, label %60, label %virtio_pci_get_notifier.exit46.thread

60:                                               ; preds = %54
  %61 = tail call zeroext i1 @msix_is_masked(ptr noundef nonnull %0, i32 noundef %58) #15
  br i1 %61, label %62, label %virtio_pci_get_notifier.exit46.thread

62:                                               ; preds = %60
  %63 = getelementptr inbounds nuw i8, ptr %10, i64 288
  %64 = load ptr, ptr %63, align 8
  %.not36 = icmp eq ptr %64, null
  br i1 %.not36, label %67, label %65

65:                                               ; preds = %62
  %66 = tail call zeroext i1 %64(ptr noundef %8, i32 noundef -1) #15
  br i1 %66, label %virtio_pci_get_notifier.exit46.thread.sink.split, label %virtio_pci_get_notifier.exit46.thread

67:                                               ; preds = %62
  %68 = tail call i32 @event_notifier_test_and_clear(ptr noundef %55) #15
  %.not37 = icmp eq i32 %68, 0
  br i1 %.not37, label %virtio_pci_get_notifier.exit46.thread, label %virtio_pci_get_notifier.exit46.thread.sink.split

virtio_pci_get_notifier.exit46.thread.sink.split: ; preds = %67, %65
  tail call void @msix_set_pending(ptr noundef nonnull %0, i32 noundef %58) #15
  br label %virtio_pci_get_notifier.exit46.thread

virtio_pci_get_notifier.exit46.thread:            ; preds = %virtio_pci_get_notifier.exit46.thread.sink.split, %50, %65, %67, %54, %60
  ret void
}